; Function Attrs: mustprogress nounwind uwtable
define dso_local { i64, i8 } @_ZNK4llvm8DWARFDie19getLocBaseAttributeEv(ptr noundef nonnull readonly align 8 captures(none) dereferenceable(16) %0) local_unnamed_addr #0 align 2 {
  %2 = alloca %"class.std::optional", align 8
  %3 = load ptr, ptr %0, align 8, !noalias !30
  %.not.i.i = icmp ne ptr %3, null
  %4 = getelementptr inbounds nuw i8, ptr %0, i64 8
  %5 = load ptr, ptr %4, align 8, !noalias !30
  %6 = icmp ne ptr %5, null
  %7 = select i1 %.not.i.i, i1 %6, i1 false
  br i1 %7, label %8, label %_ZN4llvm5dwarf15toSectionOffsetERKSt8optionalINS_14DWARFFormValueEE.exit

8:                                                ; preds = %1
  %9 = getelementptr inbounds nuw i8, ptr %5, i64 16
  %10 = load ptr, ptr %9, align 8, !noalias !30
  %.not.i = icmp eq ptr %10, null
  br i1 %.not.i, label %_ZN4llvm5dwarf15toSectionOffsetERKSt8optionalINS_14DWARFFormValueEE.exit, label %_ZNK4llvm8DWARFDie4findENS_5dwarf9AttributeE.exit

_ZNK4llvm8DWARFDie4findENS_5dwarf9AttributeE.exit: ; preds = %8
  %11 = load i64, ptr %5, align 8, !noalias !30
  call void @_ZNK4llvm28DWARFAbbreviationDeclaration17getAttributeValueEmNS_5dwarf9AttributeERKNS_9DWARFUnitE(ptr dead_on_unwind nonnull writable sret(%"class.std::optional") align 8 %2, ptr noundef nonnull align 8 dereferenceable(160) %10, i64 noundef %11, i16 noundef zeroext 140, ptr noundef nonnull align 8 dereferenceable(448) %3) #19
  %.phi.trans.insert = getelementptr inbounds nuw i8, ptr %2, i64 48
  %.pre = load i8, ptr %.phi.trans.insert, align 8
  %12 = trunc i8 %.pre to i1
  br i1 %12, label %13, label %_ZN4llvm5dwarf15toSectionOffsetERKSt8optionalINS_14DWARFFormValueEE.exit

13:                                               ; preds = %_ZNK4llvm8DWARFDie4findENS_5dwarf9AttributeE.exit
  %14 = call { i64, i8 } @_ZNK4llvm14DWARFFormValue18getAsSectionOffsetEv(ptr noundef nonnull align 8 dereferenceable(56) %2) #19
  %15 = extractvalue { i64, i8 } %14, 0
  %16 = extractvalue { i64, i8 } %14, 1
  br label %_ZN4llvm5dwarf15toSectionOffsetERKSt8optionalINS_14DWARFFormValueEE.exit

_ZN4llvm5dwarf15toSectionOffsetERKSt8optionalINS_14DWARFFormValueEE.exit: ; preds = %8, %1, %_ZNK4llvm8DWARFDie4findENS_5dwarf9AttributeE.exit, %13
  %.sroa.2.0.i = phi i8 [ %16, %13 ], [ 0, %_ZNK4llvm8DWARFDie4findENS_5dwarf9AttributeE.exit ], [ 0, %1 ], [ 0, %8 ]
  %.sroa.0.0.i = phi i64 [ %15, %13 ], [ undef, %_ZNK4llvm8DWARFDie4findENS_5dwarf9AttributeE.exit ], [ undef, %1 ], [ undef, %8 ]
  %.fca.0.insert.i = insertvalue { i64, i8 } poison, i64 %.sroa.0.0.i, 0
  %.fca.1.insert.i = insertvalue { i64, i8 } %.fca.0.insert.i, i8 %.sroa.2.0.i, 1
  ret { i64, i8 } %.fca.1.insert.i
}